; Function Attrs: mustprogress uwtable
define void @_ZN8nanobind6detail7setitemEP7_objectPKcS2_(ptr noundef %0, ptr noundef %1, ptr noundef %2) local_unnamed_addr #15 {
  %4 = tail call ptr @PyUnicode_FromString(ptr noundef %1)
  %.not = icmp eq ptr %4, null
  br i1 %.not, label %5, label %6

5:                                                ; preds = %3
  tail call void @_ZN8nanobind6detail18raise_python_errorEv() #28
  unreachable

6:                                                ; preds = %3
  %7 = tail call i32 @PyObject_SetItem(ptr noundef %0, ptr noundef nonnull %4, ptr noundef %2)
  %8 = load i64, ptr %4, align 8
  %9 = add nsw i64 %8, -1
  store i64 %9, ptr %4, align 8
  %.not.i = icmp eq i64 %9, 0
  br i1 %.not.i, label %10, label %_ZL10_Py_DECREFP7_object.exit

10:                                               ; preds = %6
  tail call void @_Py_Dealloc(ptr noundef nonnull %4)
  br label %_ZL10_Py_DECREFP7_object.exit

_ZL10_Py_DECREFP7_object.exit:                    ; preds = %6, %10
  %.not6 = icmp eq i32 %7, 0
  br i1 %.not6, label %12, label %11

11:                                               ; preds = %_ZL10_Py_DECREFP7_object.exit
  tail call void @_ZN8nanobind6detail18raise_python_errorEv() #28
  unreachable

12:                                               ; preds = %_ZL10_Py_DECREFP7_object.exit
  ret void
}